; Function Attrs: mustprogress nofree norecurse nosync nounwind willreturn memory(argmem: read) uwtable
define hidden noundef i64 @_ZNK4cvc58internal16DTypeConstructor10getNumArgsEv(ptr nocapture noundef nonnull readonly align 8 dereferenceable(264) %this) local_unnamed_addr #7 align 2 {
entry:
  %d_args = getelementptr inbounds i8, ptr %this, i64 80
  %_M_finish.i = getelementptr inbounds i8, ptr %this, i64 88
  %0 = load ptr, ptr %_M_finish.i, align 8
  %1 = load ptr, ptr %d_args, align 8
  %sub.ptr.lhs.cast.i = ptrtoint ptr %0 to i64
  %sub.ptr.rhs.cast.i = ptrtoint ptr %1 to i64
  %sub.ptr.sub.i = sub i64 %sub.ptr.lhs.cast.i, %sub.ptr.rhs.cast.i
  %sub.ptr.div.i = ashr exact i64 %sub.ptr.sub.i, 4
  ret i64 %sub.ptr.div.i
}